target datalayout = "e-m:e-p270:32:32-p271:32:32-p272:64:64-i64:64-i128:128-f80:128-n8:16:32:64-S128"
target triple = "x86_64-pc-linux-gnu"

; Function Attrs: nounwind uwtable
define void @ARKodeSPRKTable_Write(ptr noundef %0, ptr noundef %1) #0 {
  %3 = alloca ptr, align 8
  %4 = alloca ptr, align 8
  %5 = alloca ptr, align 8
  %6 = alloca ptr, align 8
  store ptr %0, ptr %3, align 8, !tbaa !10
  store ptr %1, ptr %4, align 8, !tbaa !25
  call void @llvm.lifetime.start.p0(i64 8, ptr %5) #8
  store ptr null, ptr %5, align 8, !tbaa !27
  call void @llvm.lifetime.start.p0(i64 8, ptr %6) #8
  store ptr null, ptr %6, align 8, !tbaa !27
  %7 = load ptr, ptr %3, align 8, !tbaa !10
  %8 = call i32 @ARKodeSPRKTable_ToButcher(ptr noundef %7, ptr noundef %5, ptr noundef %6)
  %9 = load ptr, ptr %5, align 8, !tbaa !27
  %10 = load ptr, ptr %4, align 8, !tbaa !25
  call void @ARKodeButcherTable_Write(ptr noundef %9, ptr noundef %10)
  %11 = load ptr, ptr %6, align 8, !tbaa !27
  %12 = load ptr, ptr %4, align 8, !tbaa !25
  call void @ARKodeButcherTable_Write(ptr noundef %11, ptr noundef %12)
  %13 = load ptr, ptr %5, align 8, !tbaa !27
  call void @ARKodeButcherTable_Free(ptr noundef %13)
  %14 = load ptr, ptr %6, align 8, !tbaa !27
  call void @ARKodeButcherTable_Free(ptr noundef %14)
  call void @llvm.lifetime.end.p0(i64 8, ptr %6) #8
  call void @llvm.lifetime.end.p0(i64 8, ptr %5) #8
  ret void
}