; Function Attrs: nounwind uwtable
define void @ARKodeSPRKTable_Write(ptr noundef readonly captures(none) %0, ptr noundef %1) local_unnamed_addr #5 {
  %3 = alloca ptr, align 8
  %4 = alloca ptr, align 8
  call void @llvm.lifetime.start.p0(i64 8, ptr nonnull %3) #14
  store ptr null, ptr %3, align 8, !tbaa !18
  call void @llvm.lifetime.start.p0(i64 8, ptr nonnull %4) #14
  store ptr null, ptr %4, align 8, !tbaa !18
  %5 = call i32 @ARKodeSPRKTable_ToButcher(ptr noundef %0, ptr noundef nonnull %3, ptr noundef nonnull %4)
  %6 = load ptr, ptr %3, align 8, !tbaa !18
  tail call void @ARKodeButcherTable_Write(ptr noundef %6, ptr noundef %1) #14
  %7 = load ptr, ptr %4, align 8, !tbaa !18
  tail call void @ARKodeButcherTable_Write(ptr noundef %7, ptr noundef %1) #14
  tail call void @ARKodeButcherTable_Free(ptr noundef %6) #14
  tail call void @ARKodeButcherTable_Free(ptr noundef %7) #14
  call void @llvm.lifetime.end.p0(i64 8, ptr nonnull %4) #14
  call void @llvm.lifetime.end.p0(i64 8, ptr nonnull %3) #14
  ret void
}